target datalayout = "e-m:e-p270:32:32-p271:32:32-p272:64:64-i64:64-i128:128-f80:128-n8:16:32:64-S128"
target triple = "x86_64-pc-linux-gnu"

%struct._e_guid_t = type { i32, i16, i16, [8 x i8] }
%struct._packet_info = type { ptr, ptr, i32, i32, %struct.nstime_t, %struct.nstime_t, %struct.nstime_t, i32, ptr, ptr, ptr, ptr, %struct._address, %struct._address, %struct._address, %struct._address, %struct._address, %struct._address, i32, ptr, i32, %struct.anon, i32, i32, i32, i32, ptr, i32, ptr, ptr, i16, i16, i32, i32, i16, i32, i32, ptr, ptr, ptr, i8, i8, i16, i16, i16, i32, i16, i16, ptr, ptr, ptr, ptr, ptr, i32 }
%struct.nstime_t = type { i64, i32 }
%struct._address = type { i32, i32, ptr, ptr }
%struct.anon = type { i8, [3 x i8] }
%struct._dcerpc_info = type { ptr, i32, i64, i8, i32, i32, i32, i32, i32, i32, i32, i32, i32, i32, ptr, ptr, ptr }
%struct._dcerpc_call_value = type { %struct._e_guid_t, i16, %struct._e_guid_t, i16, i32, %struct.nstime_t, i32, i32, ptr, ptr, ptr, i32 }
%struct._proto_node = type { ptr, ptr, ptr, ptr, ptr, ptr }
%struct.field_info = type { ptr, i32, i32, i32, i32, i32, i32, ptr, ptr, ptr, i32, i32 }

@uuid_null = internal constant %struct._e_guid_t zeroinitializer, align 4
@proto_dcom = internal global i32 0, align 4
@hf_dcom_ipid = hidden global i32 0, align 4
@.str.121 = private unnamed_addr constant [21 x i8] c"Object UUID/IPID: %s\00", align 1
@.str.122 = private unnamed_addr constant [15 x i8] c"DCOM, ORPCThat\00", align 1
@ett_dcom_that = internal global i32 0, align 4
@hf_dcom_that_flags = internal global i32 0, align 4

; Function Attrs: nounwind uwtable
define internal void @proto_item_set_generated(ptr noundef %0) #0 {
  %2 = alloca ptr, align 8
  store ptr %0, ptr %2, align 8
  %3 = load ptr, ptr %2, align 8
  %4 = icmp ne ptr %3, null
  br i1 %4, label %5, label %24

5:                                                ; preds = %1
  br label %6

6:                                                ; preds = %5
  %7 = load ptr, ptr %2, align 8
  %8 = getelementptr inbounds %struct._proto_node, ptr %7, i32 0, i32 4
  %9 = load ptr, ptr %8, align 8
  %10 = icmp ne ptr %9, null
  br i1 %10, label %11, label %22

11:                                               ; preds = %6
  %12 = load ptr, ptr %2, align 8
  %13 = getelementptr inbounds %struct._proto_node, ptr %12, i32 0, i32 4
  %14 = load ptr, ptr %13, align 8
  %15 = getelementptr inbounds %struct.field_info, ptr %14, i32 0, i32 6
  %16 = load i32, ptr %15, align 4
  %17 = or i32 %16, 2
  %18 = load ptr, ptr %2, align 8
  %19 = getelementptr inbounds %struct._proto_node, ptr %18, i32 0, i32 4
  %20 = load ptr, ptr %19, align 8
  %21 = getelementptr inbounds %struct.field_info, ptr %20, i32 0, i32 6
  store i32 %17, ptr %21, align 4
  br label %22

22:                                               ; preds = %11, %6
  br label %23

23:                                               ; preds = %22
  br label %24

24:                                               ; preds = %23, %1
  ret void
}

; Function Attrs: nounwind uwtable
define i32 @dissect_dcom_that(ptr noundef %0, i32 noundef %1, ptr noundef %2, ptr noundef %3, ptr noundef %4, ptr noundef %5) #0 {
  %7 = alloca ptr, align 8
  %8 = alloca i32, align 4
  %9 = alloca ptr, align 8
  %10 = alloca ptr, align 8
  %11 = alloca ptr, align 8
  %12 = alloca ptr, align 8
  %13 = alloca i32, align 4
  %14 = alloca ptr, align 8
  %15 = alloca ptr, align 8
  %16 = alloca i32, align 4
  %17 = alloca ptr, align 8
  store ptr %0, ptr %7, align 8
  store i32 %1, ptr %8, align 4
  store ptr %2, ptr %9, align 8
  store ptr %3, ptr %10, align 8
  store ptr %4, ptr %11, align 8
  store ptr %5, ptr %12, align 8
  %18 = load ptr, ptr %10, align 8
  %19 = load i32, ptr @proto_dcom, align 4
  %20 = load ptr, ptr %7, align 8
  %21 = load i32, ptr %8, align 4
  %22 = call ptr (ptr, i32, ptr, i32, i32, ptr, ...) @proto_tree_add_protocol_format(ptr noundef %18, i32 noundef %19, ptr noundef %20, i32 noundef %21, i32 noundef 0, ptr noundef @.str.122)
  store ptr %22, ptr %14, align 8
  %23 = load ptr, ptr %14, align 8
  %24 = load i32, ptr @ett_dcom_that, align 4
  %25 = call ptr @proto_item_add_subtree(ptr noundef %23, i32 noundef %24)
  store ptr %25, ptr %15, align 8
  %26 = load ptr, ptr %7, align 8
  %27 = load i32, ptr %8, align 4
  %28 = load ptr, ptr %9, align 8
  %29 = load ptr, ptr %15, align 8
  %30 = load ptr, ptr %11, align 8
  %31 = load ptr, ptr %12, align 8
  %32 = load i32, ptr @hf_dcom_that_flags, align 4
  %33 = call i32 @dissect_ndr_uint32(ptr noundef %26, i32 noundef %27, ptr noundef %28, ptr noundef %29, ptr noundef %30, ptr noundef %31, i32 noundef %32, ptr noundef %13)
  store i32 %33, ptr %8, align 4
  %34 = load i32, ptr %8, align 4
  %35 = sub i32 %34, 4
  store i32 %35, ptr %16, align 4
  %36 = load ptr, ptr %7, align 8
  %37 = load i32, ptr %8, align 4
  %38 = load ptr, ptr %9, align 8
  %39 = load ptr, ptr %15, align 8
  %40 = load ptr, ptr %11, align 8
  %41 = load ptr, ptr %12, align 8
  %42 = call i32 @dissect_dcom_extent(ptr noundef %36, i32 noundef %37, ptr noundef %38, ptr noundef %39, ptr noundef %40, ptr noundef %41)
  store i32 %42, ptr %8, align 4
  %43 = load ptr, ptr %14, align 8
  %44 = load i32, ptr %8, align 4
  %45 = load i32, ptr %16, align 4
  %46 = sub i32 %44, %45
  call void @proto_item_set_len(ptr noundef %43, i32 noundef %46)
  %47 = load ptr, ptr %11, align 8
  %48 = getelementptr inbounds %struct._dcerpc_info, ptr %47, i32 0, i32 14
  %49 = load ptr, ptr %48, align 8
  %50 = getelementptr inbounds %struct._dcerpc_call_value, ptr %49, i32 0, i32 2
  %51 = call i32 @memcmp(ptr noundef %50, ptr noundef @uuid_null, i64 noundef 16) #8
  %52 = icmp ne i32 %51, 0
  br i1 %52, label %53, label %72

53:                                               ; preds = %6
  %54 = load ptr, ptr %10, align 8
  %55 = load i32, ptr @hf_dcom_ipid, align 4
  %56 = load ptr, ptr %7, align 8
  %57 = load i32, ptr %8, align 4
  %58 = load ptr, ptr %11, align 8
  %59 = getelementptr inbounds %struct._dcerpc_info, ptr %58, i32 0, i32 14
  %60 = load ptr, ptr %59, align 8
  %61 = getelementptr inbounds %struct._dcerpc_call_value, ptr %60, i32 0, i32 2
  %62 = load ptr, ptr %11, align 8
  %63 = getelementptr inbounds %struct._dcerpc_info, ptr %62, i32 0, i32 14
  %64 = load ptr, ptr %63, align 8
  %65 = getelementptr inbounds %struct._dcerpc_call_value, ptr %64, i32 0, i32 2
  %66 = load ptr, ptr %9, align 8
  %67 = getelementptr inbounds %struct._packet_info, ptr %66, i32 0, i32 50
  %68 = load ptr, ptr %67, align 8
  %69 = call ptr @guids_resolve_guid_to_str(ptr noundef %65, ptr noundef %68)
  %70 = call ptr (ptr, i32, ptr, i32, i32, ptr, ptr, ...) @proto_tree_add_guid_format(ptr noundef %54, i32 noundef %55, ptr noundef %56, i32 noundef %57, i32 noundef 0, ptr noundef %61, ptr noundef @.str.121, ptr noundef %69)
  store ptr %70, ptr %17, align 8
  %71 = load ptr, ptr %17, align 8
  call void @proto_item_set_generated(ptr noundef %71)
  br label %72

72:                                               ; preds = %53, %6
  %73 = load i32, ptr %8, align 4
  ret i32 %73
}