; Function Attrs: nounwind uwtable
define i32 @dissect_dcom_that(ptr noundef %0, i32 noundef %1, ptr noundef %2, ptr noundef %3, ptr noundef %4, ptr noundef %5) local_unnamed_addr #1 {
  %7 = alloca i32, align 4
  %8 = load i32, ptr @proto_dcom, align 4
  %9 = tail call ptr (ptr, i32, ptr, i32, i32, ptr, ...) @proto_tree_add_protocol_format(ptr noundef %3, i32 noundef %8, ptr noundef %0, i32 noundef %1, i32 noundef 0, ptr noundef nonnull @.str.122) #11
  %10 = load i32, ptr @ett_dcom_that, align 4
  %11 = tail call ptr @proto_item_add_subtree(ptr noundef %9, i32 noundef %10) #11
  %12 = load i32, ptr @hf_dcom_that_flags, align 4
  %13 = call i32 @dissect_ndr_uint32(ptr noundef %0, i32 noundef %1, ptr noundef %2, ptr noundef %11, ptr noundef %4, ptr noundef %5, i32 noundef %12, ptr noundef nonnull %7) #11
  %14 = call fastcc i32 @dissect_dcom_extent(ptr noundef %0, i32 noundef %13, ptr noundef %2, ptr noundef %11, ptr noundef %4, ptr noundef %5)
  %reass.sub = sub i32 %14, %13
  %15 = add i32 %reass.sub, 4
  call void @proto_item_set_len(ptr noundef %9, i32 noundef %15) #11
  %16 = getelementptr inbounds nuw i8, ptr %4, i64 72
  %17 = load ptr, ptr %16, align 8
  %18 = getelementptr inbounds nuw i8, ptr %17, i64 20
  %bcmp = call i32 @bcmp(ptr noundef nonnull dereferenceable(16) %18, ptr noundef nonnull dereferenceable(16) @uuid_null, i64 16)
  %.not = icmp eq i32 %bcmp, 0
  br i1 %.not, label %proto_item_set_generated.exit, label %19

19:                                               ; preds = %6
  %20 = load i32, ptr @hf_dcom_ipid, align 4
  %21 = getelementptr inbounds nuw i8, ptr %2, i64 408
  %22 = load ptr, ptr %21, align 8
  %23 = call ptr @guids_resolve_guid_to_str(ptr noundef nonnull %18, ptr noundef %22) #11
  %24 = call ptr (ptr, i32, ptr, i32, i32, ptr, ptr, ...) @proto_tree_add_guid_format(ptr noundef %3, i32 noundef %20, ptr noundef %0, i32 noundef %14, i32 noundef 0, ptr noundef nonnull %18, ptr noundef nonnull @.str.121, ptr noundef %23) #11
  %.not.i = icmp eq ptr %24, null
  br i1 %.not.i, label %proto_item_set_generated.exit, label %25

25:                                               ; preds = %19
  %26 = getelementptr inbounds nuw i8, ptr %24, i64 32
  %27 = load ptr, ptr %26, align 8
  %.not5.i = icmp eq ptr %27, null
  br i1 %.not5.i, label %proto_item_set_generated.exit, label %28

28:                                               ; preds = %25
  %29 = getelementptr inbounds nuw i8, ptr %27, i64 28
  %30 = load i32, ptr %29, align 4
  %31 = or i32 %30, 2
  store i32 %31, ptr %29, align 4
  br label %proto_item_set_generated.exit

proto_item_set_generated.exit:                    ; preds = %28, %25, %19, %6
  ret i32 %14
}